; Function Attrs: nounwind uwtable
define internal range(i32 -11, 1) i32 @FN_Last_Field(ptr noundef %0) #0 {
  %2 = getelementptr inbounds nuw i8, ptr %0, i64 64
  %3 = load ptr, ptr %2, align 8, !tbaa !62
  %4 = getelementptr inbounds nuw i8, ptr %0, i64 80
  %5 = load ptr, ptr %4, align 8, !tbaa !78
  %6 = getelementptr inbounds nuw i8, ptr %0, i64 28
  %7 = load i16, ptr %6, align 4, !tbaa !47
  %8 = sext i16 %7 to i64
  %9 = getelementptr inbounds %struct._PAGE, ptr %5, i64 %8
  %10 = load i16, ptr %9, align 2, !tbaa !83
  %11 = sext i16 %10 to i64
  %12 = getelementptr inbounds ptr, ptr %3, i64 %11
  %13 = load ptr, ptr %12, align 8, !tbaa !81
  %14 = getelementptr inbounds nuw i8, ptr %13, i64 80
  %15 = load ptr, ptr %14, align 8, !tbaa !44
  %16 = getelementptr inbounds nuw i8, ptr %15, i64 64
  %17 = load ptr, ptr %16, align 8, !tbaa !62
  %18 = getelementptr inbounds nuw i8, ptr %13, i64 34
  %19 = load i16, ptr %18, align 2, !tbaa !82
  %20 = sext i16 %19 to i64
  %21 = getelementptr inbounds ptr, ptr %17, i64 %20
  %22 = getelementptr inbounds nuw i8, ptr %15, i64 80
  %23 = load ptr, ptr %22, align 8, !tbaa !78
  %24 = getelementptr inbounds nuw i8, ptr %15, i64 28
  %25 = load i16, ptr %24, align 4, !tbaa !47
  %26 = sext i16 %25 to i64
  %27 = getelementptr inbounds %struct._PAGE, ptr %23, i64 %26
  %28 = load i16, ptr %27, align 2, !tbaa !83
  %29 = sext i16 %28 to i64
  %30 = getelementptr inbounds ptr, ptr %17, i64 %29
  %31 = getelementptr inbounds nuw i8, ptr %27, i64 2
  %32 = load i16, ptr %31, align 2, !tbaa !79
  %33 = sext i16 %32 to i64
  %34 = getelementptr inbounds ptr, ptr %17, i64 %33
  br label %35

35:                                               ; preds = %35, %1
  %.0.i = phi ptr [ %21, %1 ], [ %38, %35 ]
  %36 = icmp eq ptr %.0.i, %30
  %37 = getelementptr inbounds i8, ptr %.0.i, i64 -8
  %38 = select i1 %36, ptr %34, ptr %37
  %39 = load ptr, ptr %38, align 8, !tbaa !81
  %40 = getelementptr inbounds nuw i8, ptr %39, i64 48
  %41 = load i32, ptr %40, align 8, !tbaa !19
  %42 = and i32 %41, 3
  %43 = icmp eq i32 %42, 3
  %.not.i = icmp eq ptr %13, %39
  %or.cond.i = or i1 %.not.i, %43
  br i1 %or.cond.i, label %Previous_Field_On_Page.exit, label %35, !llvm.loop !109

Previous_Field_On_Page.exit:                      ; preds = %35
  %44 = tail call i32 @_nc_Set_Current_Field(ptr noundef %0, ptr noundef nonnull %39)
  ret i32 %44
}